/*
 * Intel ACPI Component Architecture
 * AML/ASL+ Disassembler version 20251212 (64-bit version)
 * Copyright (c) 2000 - 2025 Intel Corporation
 * 
 * Disassembly of /home/nuc/source/edk2-intel-mid/Silicon/Intel/CloverviewPkg/Acpi/AcpiTables/Csrt.aml
 *
 * ACPI Data Table [CSRT]
 *
 * Format: [HexOffset DecimalOffset ByteLength]  FieldName : FieldValue (in hex)
 */

[000h 0000 004h]                   Signature : "CSRT"    [Core System Resource Table]
[004h 0004 004h]                Table Length : 0000017C
[008h 0008 001h]                    Revision : 00
[009h 0009 001h]                    Checksum : 76
[00Ah 0010 006h]                      Oem ID : "INTEL "
[010h 0016 008h]                Oem Table ID : "LANFORDC"
[018h 0024 004h]                Oem Revision : 00000003
[01Ch 0028 004h]             Asl Compiler ID : "MSFT"
[020h 0032 004h]       Asl Compiler Revision : 0100000D


[024h 0036 004h]                      Length : 000000B8
[028h 0040 004h]                   Vendor ID : 4C544E49
[02Ch 0044 004h]                Subvendor ID : 00000000
[030h 0048 002h]                   Device ID : 0004
[032h 0050 002h]                Subdevice ID : 0000
[034h 0052 002h]                    Revision : 0001
[036h 0054 002h]                    Reserved : 0000
[038h 0056 004h]          Shared Info Length : 0000001C

[03Ch 0060 002h]               Major Version : 0001
[03Eh 0062 002h]               Minor Version : 0000
[040h 0064 004h]       MMIO Base Address Low : FFA28400
[044h 0068 004h]      MMIO Base Address High : 00000000
[048h 0072 004h]               GSI Interrupt : 0000003B
[04Ch 0076 001h]          Interrupt Polarity : 01
[04Dh 0077 001h]              Interrupt Mode : 00
[04Eh 0078 001h]                Num Channels : 0A
[04Fh 0079 001h]           DMA Address Width : 20
[050h 0080 002h]           Base Request Line : 0000
[052h 0082 002h]       Num Handshake Signals : 000A
[054h 0084 004h]              Max Block Size : 00001000

[058h 0088 004h]                      Length : 0000000C
[05Ch 0092 002h]                        Type : 0003
[05Eh 0094 002h]                     Subtype : 0001
[060h 0096 004h]                         UID : 54524155

[064h 0100 004h]                      Length : 0000000C
[068h 0104 002h]                        Type : 0003
[06Ah 0106 002h]                     Subtype : 0000
[06Ch 0108 004h]                         UID : 30414843

[070h 0112 004h]                      Length : 0000000C
[074h 0116 002h]                        Type : 0003
[076h 0118 002h]                     Subtype : 0000
[078h 0120 004h]                         UID : 31414843

[07Ch 0124 004h]                      Length : 0000000C
[080h 0128 002h]                        Type : 0003
[082h 0130 002h]                     Subtype : 0000
[084h 0132 004h]                         UID : 32414843

[088h 0136 004h]                      Length : 0000000C
[08Ch 0140 002h]                        Type : 0003
[08Eh 0142 002h]                     Subtype : 0000
[090h 0144 004h]                         UID : 33414843

[094h 0148 004h]                      Length : 0000000C
[098h 0152 002h]                        Type : 0003
[09Ah 0154 002h]                     Subtype : 0000
[09Ch 0156 004h]                         UID : 34414843

[0A0h 0160 004h]                      Length : 0000000C
[0A4h 0164 002h]                        Type : 0003
[0A6h 0166 002h]                     Subtype : 0000
[0A8h 0168 004h]                         UID : 35414843

[0ACh 0172 004h]                      Length : 0000000C
[0B0h 0176 002h]                        Type : 0003
[0B2h 0178 002h]                     Subtype : 0000
[0B4h 0180 004h]                         UID : 36414843

[0B8h 0184 004h]                      Length : 0000000C
[0BCh 0188 002h]                        Type : 0003
[0BEh 0190 002h]                     Subtype : 0000
[0C0h 0192 004h]                         UID : 37414843

[0C4h 0196 004h]                      Length : 0000000C
[0C8h 0200 002h]                        Type : 0003
[0CAh 0202 002h]                     Subtype : 0000
[0CCh 0204 004h]                         UID : 38414843

[0D0h 0208 004h]                      Length : 0000000C
[0D4h 0212 002h]                        Type : 0003
[0D6h 0214 002h]                     Subtype : 0000
[0D8h 0216 004h]                         UID : 39414843

[0DCh 0220 004h]                      Length : 000000A0
[0E0h 0224 004h]                   Vendor ID : 4C544E49
[0E4h 0228 004h]                Subvendor ID : 00000000
[0E8h 0232 002h]                   Device ID : 0005
[0EAh 0234 002h]                Subdevice ID : 0000
[0ECh 0236 002h]                    Revision : 0001
[0EEh 0238 002h]                    Reserved : 0000
[0F0h 0240 004h]          Shared Info Length : 0000001C

[0F4h 0244 002h]               Major Version : 0001
[0F6h 0246 002h]               Minor Version : 0000
[0F8h 0248 004h]       MMIO Base Address Low : FF13E000
[0FCh 0252 004h]      MMIO Base Address High : 00000000
[100h 0256 004h]               GSI Interrupt : 00000031
[104h 0260 001h]          Interrupt Polarity : 01
[105h 0261 001h]              Interrupt Mode : 00
[106h 0262 001h]                Num Channels : 08
[107h 0263 001h]           DMA Address Width : 20
[108h 0264 002h]           Base Request Line : 0010
[10Ah 0266 002h]       Num Handshake Signals : 0010
[10Ch 0268 004h]              Max Block Size : 00000FFF

[110h 0272 004h]                      Length : 0000000C
[114h 0276 002h]                        Type : 0003
[116h 0278 002h]                     Subtype : 0001
[118h 0280 004h]                         UID : 20495053

[11Ch 0284 004h]                      Length : 0000000C
[120h 0288 002h]                        Type : 0003
[122h 0290 002h]                     Subtype : 0000
[124h 0292 004h]                         UID : 30414843

[128h 0296 004h]                      Length : 0000000C
[12Ch 0300 002h]                        Type : 0003
[12Eh 0302 002h]                     Subtype : 0000
[130h 0304 004h]                         UID : 31414843

[134h 0308 004h]                      Length : 0000000C
[138h 0312 002h]                        Type : 0003
[13Ah 0314 002h]                     Subtype : 0000
[13Ch 0316 004h]                         UID : 32414843

[140h 0320 004h]                      Length : 0000000C
[144h 0324 002h]                        Type : 0003
[146h 0326 002h]                     Subtype : 0000
[148h 0328 004h]                         UID : 33414843

[14Ch 0332 004h]                      Length : 0000000C
[150h 0336 002h]                        Type : 0003
[152h 0338 002h]                     Subtype : 0000
[154h 0340 004h]                         UID : 34414843

[158h 0344 004h]                      Length : 0000000C
[15Ch 0348 002h]                        Type : 0003
[15Eh 0350 002h]                     Subtype : 0000
[160h 0352 004h]                         UID : 35414843

[164h 0356 004h]                      Length : 0000000C
[168h 0360 002h]                        Type : 0003
[16Ah 0362 002h]                     Subtype : 0000
[16Ch 0364 004h]                         UID : 36414843

[170h 0368 004h]                      Length : 0000000C
[174h 0372 002h]                        Type : 0003
[176h 0374 002h]                     Subtype : 0000
[178h 0376 004h]                         UID : 37414843

Raw Table Data: Length 380 (0x17C)

    0000: 43 53 52 54 7C 01 00 00 00 76 49 4E 54 45 4C 20  // CSRT|....vINTEL 
    0010: 4C 41 4E 46 4F 52 44 43 03 00 00 00 4D 53 46 54  // LANFORDC....MSFT
    0020: 0D 00 00 01 B8 00 00 00 49 4E 54 4C 00 00 00 00  // ........INTL....
    0030: 04 00 00 00 01 00 00 00 1C 00 00 00 01 00 00 00  // ................
    0040: 00 84 A2 FF 00 00 00 00 3B 00 00 00 01 00 0A 20  // ........;...... 
    0050: 00 00 0A 00 00 10 00 00 0C 00 00 00 03 00 01 00  // ................
    0060: 55 41 52 54 0C 00 00 00 03 00 00 00 43 48 41 30  // UART........CHA0
    0070: 0C 00 00 00 03 00 00 00 43 48 41 31 0C 00 00 00  // ........CHA1....
    0080: 03 00 00 00 43 48 41 32 0C 00 00 00 03 00 00 00  // ....CHA2........
    0090: 43 48 41 33 0C 00 00 00 03 00 00 00 43 48 41 34  // CHA3........CHA4
    00A0: 0C 00 00 00 03 00 00 00 43 48 41 35 0C 00 00 00  // ........CHA5....
    00B0: 03 00 00 00 43 48 41 36 0C 00 00 00 03 00 00 00  // ....CHA6........
    00C0: 43 48 41 37 0C 00 00 00 03 00 00 00 43 48 41 38  // CHA7........CHA8
    00D0: 0C 00 00 00 03 00 00 00 43 48 41 39 A0 00 00 00  // ........CHA9....
    00E0: 49 4E 54 4C 00 00 00 00 05 00 00 00 01 00 00 00  // INTL............
    00F0: 1C 00 00 00 01 00 00 00 00 E0 13 FF 00 00 00 00  // ................
    0100: 31 00 00 00 01 00 08 20 10 00 10 00 FF 0F 00 00  // 1...... ........
    0110: 0C 00 00 00 03 00 01 00 53 50 49 20 0C 00 00 00  // ........SPI ....
    0120: 03 00 00 00 43 48 41 30 0C 00 00 00 03 00 00 00  // ....CHA0........
    0130: 43 48 41 31 0C 00 00 00 03 00 00 00 43 48 41 32  // CHA1........CHA2
    0140: 0C 00 00 00 03 00 00 00 43 48 41 33 0C 00 00 00  // ........CHA3....
    0150: 03 00 00 00 43 48 41 34 0C 00 00 00 03 00 00 00  // ....CHA4........
    0160: 43 48 41 35 0C 00 00 00 03 00 00 00 43 48 41 36  // CHA5........CHA6
    0170: 0C 00 00 00 03 00 00 00 43 48 41 37              // ........CHA7
